target datalayout = "e-m:e-p270:32:32-p271:32:32-p272:64:64-i64:64-i128:128-f80:128-n8:16:32:64-S128"
target triple = "x86_64-pc-linux-gnu"

%"class.cv::Range" = type { i32, i32 }
%class.anon.13 = type { ptr, ptr, ptr, ptr, ptr, ptr, ptr, ptr, ptr, ptr, ptr }

; Function Attrs: inlinehint mustprogress nounwind uwtable
define internal void @"_ZZN2cv3dnnL14fast_gemm_thinEffiiiPKciiS2_iPcibENK3$_0clERKNS_5RangeE"(ptr noundef nonnull align 8 dereferenceable(88) %0, ptr noundef nonnull align 4 dereferenceable(8) %1) #7 align 2 {
  %3 = alloca ptr, align 8
  %4 = alloca ptr, align 8
  %5 = alloca i32, align 4
  %6 = alloca i32, align 4
  %7 = alloca ptr, align 8
  %8 = alloca i32, align 4
  %9 = alloca i32, align 4
  %10 = alloca i32, align 4
  %11 = alloca ptr, align 8
  %12 = alloca float, align 4
  %13 = alloca i32, align 4
  store ptr %0, ptr %3, align 8, !tbaa !15
  store ptr %1, ptr %4, align 8, !tbaa !39
  %14 = load ptr, ptr %3, align 8
  call void @llvm.lifetime.start.p0(i64 4, ptr %5) #3
  %15 = load ptr, ptr %4, align 8, !tbaa !39
  %16 = getelementptr inbounds nuw %"class.cv::Range", ptr %15, i32 0, i32 0
  %17 = load i32, ptr %16, align 4, !tbaa !43
  store i32 %17, ptr %5, align 4, !tbaa !3
  br label %18

18:                                               ; preds = %153, %2
  %19 = load i32, ptr %5, align 4, !tbaa !3
  %20 = load ptr, ptr %4, align 8, !tbaa !39
  %21 = getelementptr inbounds nuw %"class.cv::Range", ptr %20, i32 0, i32 1
  %22 = load i32, ptr %21, align 4, !tbaa !45
  %23 = icmp slt i32 %19, %22
  br i1 %23, label %25, label %24

24:                                               ; preds = %18
  store i32 2, ptr %6, align 4
  call void @llvm.lifetime.end.p0(i64 4, ptr %5) #3
  br label %156

25:                                               ; preds = %18
  call void @llvm.lifetime.start.p0(i64 8, ptr %7) #3
  %26 = getelementptr inbounds nuw %class.anon.13, ptr %14, i32 0, i32 0
  %27 = load ptr, ptr %26, align 8, !tbaa !196
  %28 = load ptr, ptr %27, align 8, !tbaa !7
  %29 = load i32, ptr %5, align 4, !tbaa !3
  %30 = getelementptr inbounds nuw %class.anon.13, ptr %14, i32 0, i32 1
  %31 = load ptr, ptr %30, align 8, !tbaa !198
  %32 = load i32, ptr %31, align 4, !tbaa !3
  %33 = mul nsw i32 %29, %32
  %34 = sext i32 %33 to i64
  %35 = getelementptr inbounds float, ptr %28, i64 %34
  store ptr %35, ptr %7, align 8, !tbaa !16
  %36 = getelementptr inbounds nuw %class.anon.13, ptr %14, i32 0, i32 2
  %37 = load ptr, ptr %36, align 8, !tbaa !199
  %38 = load float, ptr %37, align 4, !tbaa !18
  %39 = fcmp oeq float %38, 0.000000e+00
  br i1 %39, label %40, label %57

40:                                               ; preds = %25
  call void @llvm.lifetime.start.p0(i64 4, ptr %8) #3
  store i32 0, ptr %8, align 4, !tbaa !3
  br label %41

41:                                               ; preds = %53, %40
  %42 = load i32, ptr %8, align 4, !tbaa !3
  %43 = getelementptr inbounds nuw %class.anon.13, ptr %14, i32 0, i32 3
  %44 = load ptr, ptr %43, align 8, !tbaa !200
  %45 = load i32, ptr %44, align 4, !tbaa !3
  %46 = icmp slt i32 %42, %45
  br i1 %46, label %48, label %47

47:                                               ; preds = %41
  store i32 5, ptr %6, align 4
  call void @llvm.lifetime.end.p0(i64 4, ptr %8) #3
  br label %56

48:                                               ; preds = %41
  %49 = load ptr, ptr %7, align 8, !tbaa !16
  %50 = load i32, ptr %8, align 4, !tbaa !3
  %51 = sext i32 %50 to i64
  %52 = getelementptr inbounds float, ptr %49, i64 %51
  store float 0.000000e+00, ptr %52, align 4, !tbaa !18
  br label %53

53:                                               ; preds = %48
  %54 = load i32, ptr %8, align 4, !tbaa !3
  %55 = add nsw i32 %54, 1
  store i32 %55, ptr %8, align 4, !tbaa !3
  br label %41, !llvm.loop !201

56:                                               ; preds = %47
  br label %85

57:                                               ; preds = %25
  %58 = getelementptr inbounds nuw %class.anon.13, ptr %14, i32 0, i32 2
  %59 = load ptr, ptr %58, align 8, !tbaa !199
  %60 = load float, ptr %59, align 4, !tbaa !18
  %61 = fcmp une float %60, 1.000000e+00
  br i1 %61, label %62, label %84

62:                                               ; preds = %57
  call void @llvm.lifetime.start.p0(i64 4, ptr %9) #3
  store i32 0, ptr %9, align 4, !tbaa !3
  br label %63

63:                                               ; preds = %80, %62
  %64 = load i32, ptr %9, align 4, !tbaa !3
  %65 = getelementptr inbounds nuw %class.anon.13, ptr %14, i32 0, i32 3
  %66 = load ptr, ptr %65, align 8, !tbaa !200
  %67 = load i32, ptr %66, align 4, !tbaa !3
  %68 = icmp slt i32 %64, %67
  br i1 %68, label %70, label %69

69:                                               ; preds = %63
  store i32 8, ptr %6, align 4
  call void @llvm.lifetime.end.p0(i64 4, ptr %9) #3
  br label %83

70:                                               ; preds = %63
  %71 = getelementptr inbounds nuw %class.anon.13, ptr %14, i32 0, i32 2
  %72 = load ptr, ptr %71, align 8, !tbaa !199
  %73 = load float, ptr %72, align 4, !tbaa !18
  %74 = load ptr, ptr %7, align 8, !tbaa !16
  %75 = load i32, ptr %9, align 4, !tbaa !3
  %76 = sext i32 %75 to i64
  %77 = getelementptr inbounds float, ptr %74, i64 %76
  %78 = load float, ptr %77, align 4, !tbaa !18
  %79 = fmul float %78, %73
  store float %79, ptr %77, align 4, !tbaa !18
  br label %80

80:                                               ; preds = %70
  %81 = load i32, ptr %9, align 4, !tbaa !3
  %82 = add nsw i32 %81, 1
  store i32 %82, ptr %9, align 4, !tbaa !3
  br label %63, !llvm.loop !202

83:                                               ; preds = %69
  br label %84

84:                                               ; preds = %83, %57
  br label %85

85:                                               ; preds = %84, %56
  call void @llvm.lifetime.start.p0(i64 4, ptr %10) #3
  store i32 0, ptr %10, align 4, !tbaa !3
  br label %86

86:                                               ; preds = %149, %85
  %87 = load i32, ptr %10, align 4, !tbaa !3
  %88 = getelementptr inbounds nuw %class.anon.13, ptr %14, i32 0, i32 4
  %89 = load ptr, ptr %88, align 8, !tbaa !203
  %90 = load i32, ptr %89, align 4, !tbaa !3
  %91 = icmp slt i32 %87, %90
  br i1 %91, label %93, label %92

92:                                               ; preds = %86
  store i32 11, ptr %6, align 4
  call void @llvm.lifetime.end.p0(i64 4, ptr %10) #3
  br label %152

93:                                               ; preds = %86
  call void @llvm.lifetime.start.p0(i64 8, ptr %11) #3
  %94 = getelementptr inbounds nuw %class.anon.13, ptr %14, i32 0, i32 5
  %95 = load ptr, ptr %94, align 8, !tbaa !204
  %96 = load ptr, ptr %95, align 8, !tbaa !7
  %97 = load i32, ptr %10, align 4, !tbaa !3
  %98 = getelementptr inbounds nuw %class.anon.13, ptr %14, i32 0, i32 6
  %99 = load ptr, ptr %98, align 8, !tbaa !205
  %100 = load i32, ptr %99, align 4, !tbaa !3
  %101 = mul nsw i32 %97, %100
  %102 = sext i32 %101 to i64
  %103 = getelementptr inbounds float, ptr %96, i64 %102
  store ptr %103, ptr %11, align 8, !tbaa !16
  call void @llvm.lifetime.start.p0(i64 4, ptr %12) #3
  %104 = getelementptr inbounds nuw %class.anon.13, ptr %14, i32 0, i32 7
  %105 = load ptr, ptr %104, align 8, !tbaa !206
  %106 = load float, ptr %105, align 4, !tbaa !18
  %107 = getelementptr inbounds nuw %class.anon.13, ptr %14, i32 0, i32 8
  %108 = load ptr, ptr %107, align 8, !tbaa !207
  %109 = load ptr, ptr %108, align 8, !tbaa !16
  %110 = load i32, ptr %5, align 4, !tbaa !3
  %111 = getelementptr inbounds nuw %class.anon.13, ptr %14, i32 0, i32 9
  %112 = load ptr, ptr %111, align 8, !tbaa !208
  %113 = load i32, ptr %112, align 4, !tbaa !3
  %114 = mul nsw i32 %110, %113
  %115 = load i32, ptr %10, align 4, !tbaa !3
  %116 = getelementptr inbounds nuw %class.anon.13, ptr %14, i32 0, i32 10
  %117 = load ptr, ptr %116, align 8, !tbaa !209
  %118 = load i32, ptr %117, align 4, !tbaa !3
  %119 = mul nsw i32 %115, %118
  %120 = add nsw i32 %114, %119
  %121 = sext i32 %120 to i64
  %122 = getelementptr inbounds float, ptr %109, i64 %121
  %123 = load float, ptr %122, align 4, !tbaa !18
  %124 = fmul float %106, %123
  store float %124, ptr %12, align 4, !tbaa !18
  call void @llvm.lifetime.start.p0(i64 4, ptr %13) #3
  store i32 0, ptr %13, align 4, !tbaa !3
  br label %125

125:                                              ; preds = %145, %93
  %126 = load i32, ptr %13, align 4, !tbaa !3
  %127 = getelementptr inbounds nuw %class.anon.13, ptr %14, i32 0, i32 3
  %128 = load ptr, ptr %127, align 8, !tbaa !200
  %129 = load i32, ptr %128, align 4, !tbaa !3
  %130 = icmp slt i32 %126, %129
  br i1 %130, label %132, label %131

131:                                              ; preds = %125
  store i32 14, ptr %6, align 4
  call void @llvm.lifetime.end.p0(i64 4, ptr %13) #3
  br label %148

132:                                              ; preds = %125
  %133 = load float, ptr %12, align 4, !tbaa !18
  %134 = load ptr, ptr %11, align 8, !tbaa !16
  %135 = load i32, ptr %13, align 4, !tbaa !3
  %136 = sext i32 %135 to i64
  %137 = getelementptr inbounds float, ptr %134, i64 %136
  %138 = load float, ptr %137, align 4, !tbaa !18
  %139 = load ptr, ptr %7, align 8, !tbaa !16
  %140 = load i32, ptr %13, align 4, !tbaa !3
  %141 = sext i32 %140 to i64
  %142 = getelementptr inbounds float, ptr %139, i64 %141
  %143 = load float, ptr %142, align 4, !tbaa !18
  %144 = call float @llvm.fmuladd.f32(float %133, float %138, float %143)
  store float %144, ptr %142, align 4, !tbaa !18
  br label %145

145:                                              ; preds = %132
  %146 = load i32, ptr %13, align 4, !tbaa !3
  %147 = add nsw i32 %146, 1
  store i32 %147, ptr %13, align 4, !tbaa !3
  br label %125, !llvm.loop !210

148:                                              ; preds = %131
  call void @llvm.lifetime.end.p0(i64 4, ptr %12) #3
  call void @llvm.lifetime.end.p0(i64 8, ptr %11) #3
  br label %149

149:                                              ; preds = %148
  %150 = load i32, ptr %10, align 4, !tbaa !3
  %151 = add nsw i32 %150, 1
  store i32 %151, ptr %10, align 4, !tbaa !3
  br label %86, !llvm.loop !211

152:                                              ; preds = %92
  call void @llvm.lifetime.end.p0(i64 8, ptr %7) #3
  br label %153

153:                                              ; preds = %152
  %154 = load i32, ptr %5, align 4, !tbaa !3
  %155 = add nsw i32 %154, 1
  store i32 %155, ptr %5, align 4, !tbaa !3
  br label %18, !llvm.loop !212

156:                                              ; preds = %24
  ret void
}