; Function Attrs: inlinehint mustprogress nofree norecurse nosync nounwind memory(readwrite, inaccessiblemem: none) uwtable
define internal fastcc void @"_ZZN2cv3dnnL14fast_gemm_thinEffiiiPKciiS2_iPcibENK3$_0clERKNS_5RangeE"(ptr noundef nonnull readonly align 8 captures(none) dereferenceable(88) %0, i32 %.0.val, i32 %.4.val) unnamed_addr #19 align 2 {
  %2 = icmp slt i32 %.0.val, %.4.val
  br i1 %2, label %.lr.ph13, label %._crit_edge

.lr.ph13:                                         ; preds = %1
  %3 = load ptr, ptr %0, align 8, !tbaa !161
  %4 = load ptr, ptr %3, align 8, !tbaa !19
  %5 = getelementptr inbounds nuw i8, ptr %0, i64 8
  %6 = load ptr, ptr %5, align 8, !tbaa !163
  %7 = load i32, ptr %6, align 4, !tbaa !17
  %8 = getelementptr inbounds nuw i8, ptr %0, i64 16
  %9 = load ptr, ptr %8, align 8, !tbaa !164
  %10 = getelementptr inbounds nuw i8, ptr %0, i64 24
  %11 = load ptr, ptr %10, align 8
  %12 = getelementptr inbounds nuw i8, ptr %0, i64 32
  %13 = load ptr, ptr %12, align 8, !tbaa !165
  %14 = load i32, ptr %13, align 4, !tbaa !17
  %15 = icmp sgt i32 %14, 0
  %16 = getelementptr inbounds nuw i8, ptr %0, i64 56
  %17 = load ptr, ptr %16, align 8
  br i1 %15, label %.lr.ph13.split.us, label %.lr.ph13.split.preheader

.lr.ph13.split.preheader:                         ; preds = %.lr.ph13
  %18 = sext i32 %.0.val to i64
  %19 = sext i32 %7 to i64
  %20 = sub i32 %.4.val, %.0.val
  br label %.lr.ph13.split

.lr.ph13.split.us:                                ; preds = %.lr.ph13
  %21 = getelementptr inbounds nuw i8, ptr %0, i64 64
  %22 = load ptr, ptr %21, align 8
  %23 = getelementptr inbounds nuw i8, ptr %0, i64 40
  %24 = load ptr, ptr %23, align 8
  %25 = load ptr, ptr %24, align 8, !tbaa !19
  %26 = load ptr, ptr %22, align 8, !tbaa !6
  %27 = load i32, ptr %11, align 4, !tbaa !17
  %28 = icmp sgt i32 %27, 0
  br i1 %28, label %.lr.ph13.split.us.split.us.preheader, label %._crit_edge

.lr.ph13.split.us.split.us.preheader:             ; preds = %.lr.ph13.split.us
  %29 = getelementptr inbounds nuw i8, ptr %0, i64 80
  %30 = load ptr, ptr %29, align 8
  %31 = load i32, ptr %30, align 4, !tbaa !17
  %32 = getelementptr inbounds nuw i8, ptr %0, i64 72
  %33 = load ptr, ptr %32, align 8
  %34 = load i32, ptr %33, align 4, !tbaa !17
  %35 = getelementptr inbounds nuw i8, ptr %0, i64 48
  %36 = load ptr, ptr %35, align 8
  %37 = load i32, ptr %36, align 4, !tbaa !17
  %38 = sext i32 %37 to i64
  %39 = sext i32 %31 to i64
  %40 = sext i32 %.0.val to i64
  %41 = sext i32 %7 to i64
  %42 = sext i32 %34 to i64
  %43 = sub i32 %.4.val, %.0.val
  %wide.trip.count48 = zext nneg i32 %27 to i64
  %44 = zext nneg i32 %27 to i64
  %45 = shl nuw nsw i64 %44, 2
  %wide.trip.count64 = zext nneg i32 %14 to i64
  %wide.trip.count59 = zext nneg i32 %27 to i64
  br label %.lr.ph13.split.us.split.us

.lr.ph13.split.us.split.us:                       ; preds = %.lr.ph13.split.us.split.us.preheader, %._crit_edge11.split.us.us.us
  %indvars.iv66 = phi i64 [ %40, %.lr.ph13.split.us.split.us.preheader ], [ %indvars.iv.next67, %._crit_edge11.split.us.us.us ]
  %indvar50 = phi i32 [ 0, %.lr.ph13.split.us.split.us.preheader ], [ %indvar.next51, %._crit_edge11.split.us.us.us ]
  %46 = mul nsw i64 %indvars.iv66, %41
  %47 = getelementptr inbounds float, ptr %4, i64 %46
  %48 = load float, ptr %9, align 4, !tbaa !12
  %49 = fcmp oeq float %48, 0.000000e+00
  br i1 %49, label %.lr.ph5.us.us.preheader, label %50

50:                                               ; preds = %.lr.ph13.split.us.split.us
  %51 = fcmp une float %48, 1.000000e+00
  br i1 %51, label %.lr.ph.us.us, label %.lr.ph10.us.us

.lr.ph.us.us:                                     ; preds = %50, %.lr.ph.us.us
  %indvars.iv45 = phi i64 [ %indvars.iv.next46, %.lr.ph.us.us ], [ 0, %50 ]
  %52 = load float, ptr %9, align 4, !tbaa !12
  %53 = getelementptr inbounds nuw float, ptr %47, i64 %indvars.iv45
  %54 = load float, ptr %53, align 4, !tbaa !12
  %55 = fmul float %52, %54
  store float %55, ptr %53, align 4, !tbaa !12
  %indvars.iv.next46 = add nuw nsw i64 %indvars.iv45, 1
  %exitcond49.not = icmp eq i64 %indvars.iv.next46, %wide.trip.count48
  br i1 %exitcond49.not, label %.lr.ph10.us.us, label %.lr.ph.us.us, !llvm.loop !166

.lr.ph10.us.us:                                   ; preds = %.lr.ph.us.us, %.lr.ph5.us.us.preheader, %50
  %56 = mul nsw i64 %indvars.iv66, %42
  %invariant.gep = getelementptr float, ptr %26, i64 %56
  br label %.lr.ph7.us.us.us

.lr.ph5.us.us.preheader:                          ; preds = %.lr.ph13.split.us.split.us
  %57 = add i32 %.0.val, %indvar50
  %58 = mul i32 %7, %57
  %59 = sext i32 %58 to i64
  %60 = shl nsw i64 %59, 2
  %scevgep52 = getelementptr i8, ptr %4, i64 %60
  tail call void @llvm.memset.p0.i64(ptr align 4 %scevgep52, i8 0, i64 %45, i1 false), !tbaa !12
  br label %.lr.ph10.us.us

.lr.ph7.us.us.us:                                 ; preds = %._crit_edge.us.us.us, %.lr.ph10.us.us
  %indvars.iv61 = phi i64 [ %indvars.iv.next62, %._crit_edge.us.us.us ], [ 0, %.lr.ph10.us.us ]
  %61 = mul nsw i64 %indvars.iv61, %38
  %62 = getelementptr inbounds float, ptr %25, i64 %61
  %63 = load float, ptr %17, align 4, !tbaa !12
  %64 = mul nsw i64 %indvars.iv61, %39
  %gep = getelementptr float, ptr %invariant.gep, i64 %64
  %65 = load float, ptr %gep, align 4, !tbaa !12
  %66 = fmul float %63, %65
  br label %67

67:                                               ; preds = %67, %.lr.ph7.us.us.us
  %indvars.iv56 = phi i64 [ %indvars.iv.next57, %67 ], [ 0, %.lr.ph7.us.us.us ]
  %68 = getelementptr inbounds nuw float, ptr %62, i64 %indvars.iv56
  %69 = load float, ptr %68, align 4, !tbaa !12
  %70 = getelementptr inbounds nuw float, ptr %47, i64 %indvars.iv56
  %71 = load float, ptr %70, align 4, !tbaa !12
  %72 = tail call float @llvm.fmuladd.f32(float %66, float %69, float %71)
  store float %72, ptr %70, align 4, !tbaa !12
  %indvars.iv.next57 = add nuw nsw i64 %indvars.iv56, 1
  %exitcond60.not = icmp eq i64 %indvars.iv.next57, %wide.trip.count59
  br i1 %exitcond60.not, label %._crit_edge.us.us.us, label %67, !llvm.loop !167

._crit_edge.us.us.us:                             ; preds = %67
  %indvars.iv.next62 = add nuw nsw i64 %indvars.iv61, 1
  %exitcond65.not = icmp eq i64 %indvars.iv.next62, %wide.trip.count64
  br i1 %exitcond65.not, label %._crit_edge11.split.us.us.us, label %.lr.ph7.us.us.us, !llvm.loop !168

._crit_edge11.split.us.us.us:                     ; preds = %._crit_edge.us.us.us
  %indvars.iv.next67 = add nsw i64 %indvars.iv66, 1
  %indvar.next51 = add i32 %indvar50, 1
  %exitcond69.not = icmp eq i32 %indvar.next51, %43
  br i1 %exitcond69.not, label %._crit_edge, label %.lr.ph13.split.us.split.us, !llvm.loop !169

._crit_edge:                                      ; preds = %.loopexit, %._crit_edge11.split.us.us.us, %.lr.ph13.split.us, %1
  ret void

.lr.ph13.split:                                   ; preds = %.lr.ph13.split.preheader, %.loopexit
  %indvars.iv26 = phi i64 [ %18, %.lr.ph13.split.preheader ], [ %indvars.iv.next27, %.loopexit ]
  %indvar = phi i32 [ 0, %.lr.ph13.split.preheader ], [ %indvar.next, %.loopexit ]
  %73 = add i32 %.0.val, %indvar
  %74 = mul i32 %7, %73
  %75 = sext i32 %74 to i64
  %76 = shl nsw i64 %75, 2
  %scevgep = getelementptr i8, ptr %4, i64 %76
  %77 = mul nsw i64 %indvars.iv26, %19
  %78 = getelementptr inbounds float, ptr %4, i64 %77
  %79 = load float, ptr %9, align 4, !tbaa !12
  %80 = fcmp oeq float %79, 0.000000e+00
  br i1 %80, label %.preheader, label %85

.preheader:                                       ; preds = %.lr.ph13.split
  %81 = load i32, ptr %11, align 4, !tbaa !17
  %82 = icmp sgt i32 %81, 0
  br i1 %82, label %.lr.ph5.preheader, label %.loopexit

.lr.ph5.preheader:                                ; preds = %.preheader
  %83 = zext nneg i32 %81 to i64
  %84 = shl nuw nsw i64 %83, 2
  tail call void @llvm.memset.p0.i64(ptr align 4 %scevgep, i8 0, i64 %84, i1 false), !tbaa !12
  br label %.loopexit

85:                                               ; preds = %.lr.ph13.split
  %86 = fcmp une float %79, 1.000000e+00
  br i1 %86, label %.preheader1, label %.loopexit

.preheader1:                                      ; preds = %85
  %87 = load i32, ptr %11, align 4, !tbaa !17
  %88 = icmp sgt i32 %87, 0
  br i1 %88, label %.lr.ph.preheader, label %.loopexit

.lr.ph.preheader:                                 ; preds = %.preheader1
  %wide.trip.count = zext nneg i32 %87 to i64
  br label %.lr.ph

.lr.ph:                                           ; preds = %.lr.ph.preheader, %.lr.ph
  %indvars.iv = phi i64 [ 0, %.lr.ph.preheader ], [ %indvars.iv.next, %.lr.ph ]
  %89 = load float, ptr %9, align 4, !tbaa !12
  %90 = getelementptr inbounds nuw float, ptr %78, i64 %indvars.iv
  %91 = load float, ptr %90, align 4, !tbaa !12
  %92 = fmul float %89, %91
  store float %92, ptr %90, align 4, !tbaa !12
  %indvars.iv.next = add nuw nsw i64 %indvars.iv, 1
  %exitcond.not = icmp eq i64 %indvars.iv.next, %wide.trip.count
  br i1 %exitcond.not, label %.loopexit, label %.lr.ph, !llvm.loop !166

.loopexit:                                        ; preds = %.lr.ph, %.lr.ph5.preheader, %.preheader1, %.preheader, %85
  %indvars.iv.next27 = add nsw i64 %indvars.iv26, 1
  %indvar.next = add i32 %indvar, 1
  %exitcond29.not = icmp eq i32 %indvar.next, %20
  br i1 %exitcond29.not, label %._crit_edge, label %.lr.ph13.split, !llvm.loop !169
}